target datalayout = "e-m:e-p270:32:32-p271:32:32-p272:64:64-i64:64-i128:128-f80:128-n8:16:32:64-S128"
target triple = "x86_64-pc-linux-gnu"

%struct.Rtm_Man_t_ = type { ptr, ptr, ptr, ptr, ptr, i32, i32 }
%struct.Vec_Ptr_t_ = type { i32, i32, ptr }
%struct.Rtm_Obj_t_ = type { ptr, i32, i32, i32, i32, [0 x ptr] }

; Function Attrs: inlinehint nounwind uwtable
define internal i32 @Vec_PtrSize(ptr noundef %0) #5 {
  %2 = alloca ptr, align 8
  store ptr %0, ptr %2, align 8, !tbaa !22
  %3 = load ptr, ptr %2, align 8, !tbaa !22
  %4 = getelementptr inbounds nuw %struct.Vec_Ptr_t_, ptr %3, i32 0, i32 1
  %5 = load i32, ptr %4, align 4, !tbaa !23
  ret i32 %5
}

; Function Attrs: inlinehint nounwind uwtable
define internal ptr @Vec_PtrEntry(ptr noundef %0, i32 noundef %1) #5 {
  %3 = alloca ptr, align 8
  %4 = alloca i32, align 4
  store ptr %0, ptr %3, align 8, !tbaa !22
  store i32 %1, ptr %4, align 4, !tbaa !21
  %5 = load ptr, ptr %3, align 8, !tbaa !22
  %6 = getelementptr inbounds nuw %struct.Vec_Ptr_t_, ptr %5, i32 0, i32 2
  %7 = load ptr, ptr %6, align 8, !tbaa !26
  %8 = load i32, ptr %4, align 4, !tbaa !21
  %9 = sext i32 %8 to i64
  %10 = getelementptr inbounds ptr, ptr %7, i64 %9
  %11 = load ptr, ptr %10, align 8, !tbaa !45
  ret ptr %11
}

; Function Attrs: nounwind uwtable
define i32 @Rtm_ManMarkAutoFwd(ptr noundef %0) #0 {
  %2 = alloca ptr, align 8
  %3 = alloca ptr, align 8
  %4 = alloca i32, align 4
  %5 = alloca i32, align 4
  store ptr %0, ptr %2, align 8, !tbaa !3
  call void @llvm.lifetime.start.p0(i64 8, ptr %3) #11
  call void @llvm.lifetime.start.p0(i64 4, ptr %4) #11
  call void @llvm.lifetime.start.p0(i64 4, ptr %5) #11
  store i32 0, ptr %5, align 4, !tbaa !21
  %6 = load ptr, ptr %2, align 8, !tbaa !3
  %7 = getelementptr inbounds nuw %struct.Rtm_Man_t_, ptr %6, i32 0, i32 0
  %8 = load ptr, ptr %7, align 8, !tbaa !12
  %9 = call ptr @Vec_PtrEntry(ptr noundef %8, i32 noundef 0)
  store ptr %9, ptr %3, align 8, !tbaa !40
  %10 = load ptr, ptr %3, align 8, !tbaa !40
  call void @Rtm_ObjMarkAutoFwd_rec(ptr noundef %10)
  store i32 0, ptr %4, align 4, !tbaa !21
  br label %11

11:                                               ; preds = %28, %1
  %12 = load i32, ptr %4, align 4, !tbaa !21
  %13 = load ptr, ptr %2, align 8, !tbaa !3
  %14 = getelementptr inbounds nuw %struct.Rtm_Man_t_, ptr %13, i32 0, i32 1
  %15 = load ptr, ptr %14, align 8, !tbaa !18
  %16 = call i32 @Vec_PtrSize(ptr noundef %15)
  %17 = icmp slt i32 %12, %16
  br i1 %17, label %18, label %24

18:                                               ; preds = %11
  %19 = load ptr, ptr %2, align 8, !tbaa !3
  %20 = getelementptr inbounds nuw %struct.Rtm_Man_t_, ptr %19, i32 0, i32 1
  %21 = load ptr, ptr %20, align 8, !tbaa !18
  %22 = load i32, ptr %4, align 4, !tbaa !21
  %23 = call ptr @Vec_PtrEntry(ptr noundef %21, i32 noundef %22)
  store ptr %23, ptr %3, align 8, !tbaa !40
  br label %24

24:                                               ; preds = %18, %11
  %25 = phi i1 [ false, %11 ], [ true, %18 ]
  br i1 %25, label %26, label %31

26:                                               ; preds = %24
  %27 = load ptr, ptr %3, align 8, !tbaa !40
  call void @Rtm_ObjMarkAutoFwd_rec(ptr noundef %27)
  br label %28

28:                                               ; preds = %26
  %29 = load i32, ptr %4, align 4, !tbaa !21
  %30 = add nsw i32 %29, 1
  store i32 %30, ptr %4, align 4, !tbaa !21
  br label %11, !llvm.loop !59

31:                                               ; preds = %24
  store i32 0, ptr %4, align 4, !tbaa !21
  br label %32

32:                                               ; preds = %75, %31
  %33 = load i32, ptr %4, align 4, !tbaa !21
  %34 = load ptr, ptr %2, align 8, !tbaa !3
  %35 = getelementptr inbounds nuw %struct.Rtm_Man_t_, ptr %34, i32 0, i32 0
  %36 = load ptr, ptr %35, align 8, !tbaa !12
  %37 = call i32 @Vec_PtrSize(ptr noundef %36)
  %38 = icmp slt i32 %33, %37
  br i1 %38, label %39, label %45

39:                                               ; preds = %32
  %40 = load ptr, ptr %2, align 8, !tbaa !3
  %41 = getelementptr inbounds nuw %struct.Rtm_Man_t_, ptr %40, i32 0, i32 0
  %42 = load ptr, ptr %41, align 8, !tbaa !12
  %43 = load i32, ptr %4, align 4, !tbaa !21
  %44 = call ptr @Vec_PtrEntry(ptr noundef %42, i32 noundef %43)
  store ptr %44, ptr %3, align 8, !tbaa !40
  br label %45

45:                                               ; preds = %39, %32
  %46 = phi i1 [ false, %32 ], [ true, %39 ]
  br i1 %46, label %47, label %78

47:                                               ; preds = %45
  %48 = load ptr, ptr %3, align 8, !tbaa !40
  %49 = getelementptr inbounds nuw %struct.Rtm_Obj_t_, ptr %48, i32 0, i32 1
  %50 = load i32, ptr %49, align 8
  %51 = lshr i32 %50, 4
  %52 = and i32 %51, 1
  %53 = zext i32 %52 to i64
  %54 = icmp ne i64 %53, 0
  %55 = xor i1 %54, true
  %56 = zext i1 %55 to i32
  %57 = sext i32 %56 to i64
  %58 = load ptr, ptr %3, align 8, !tbaa !40
  %59 = getelementptr inbounds nuw %struct.Rtm_Obj_t_, ptr %58, i32 0, i32 1
  %60 = trunc i64 %57 to i32
  %61 = load i32, ptr %59, align 8
  %62 = and i32 %60, 1
  %63 = shl i32 %62, 4
  %64 = and i32 %61, -17
  %65 = or i32 %64, %63
  store i32 %65, ptr %59, align 8
  %66 = load ptr, ptr %3, align 8, !tbaa !40
  %67 = getelementptr inbounds nuw %struct.Rtm_Obj_t_, ptr %66, i32 0, i32 1
  %68 = load i32, ptr %67, align 8
  %69 = lshr i32 %68, 4
  %70 = and i32 %69, 1
  %71 = zext i32 %70 to i64
  %72 = trunc i64 %71 to i32
  %73 = load i32, ptr %5, align 4, !tbaa !21
  %74 = add nsw i32 %73, %72
  store i32 %74, ptr %5, align 4, !tbaa !21
  br label %75

75:                                               ; preds = %47
  %76 = load i32, ptr %4, align 4, !tbaa !21
  %77 = add nsw i32 %76, 1
  store i32 %77, ptr %4, align 4, !tbaa !21
  br label %32, !llvm.loop !60

78:                                               ; preds = %45
  %79 = load i32, ptr %5, align 4, !tbaa !21
  call void @llvm.lifetime.end.p0(i64 4, ptr %5) #11
  call void @llvm.lifetime.end.p0(i64 4, ptr %4) #11
  call void @llvm.lifetime.end.p0(i64 8, ptr %3) #11
  ret i32 %79
}