; Function Attrs: nofree nosync nounwind memory(readwrite, inaccessiblemem: none) uwtable
define i32 @Rtm_ManMarkAutoFwd(ptr noundef readonly captures(none) %0) local_unnamed_addr #11 {
  %2 = load ptr, ptr %0, align 8, !tbaa !26
  %3 = getelementptr i8, ptr %2, i64 8
  %.val23 = load ptr, ptr %3, align 8, !tbaa !25
  %4 = load ptr, ptr %.val23, align 8, !tbaa !34
  tail call void @Rtm_ObjMarkAutoFwd_rec(ptr noundef %4)
  %5 = getelementptr inbounds nuw i8, ptr %0, i64 8
  %6 = load ptr, ptr %5, align 8, !tbaa !30
  %7 = getelementptr i8, ptr %6, i64 4
  %.val2024 = load i32, ptr %7, align 4, !tbaa !22
  %8 = icmp sgt i32 %.val2024, 0
  br i1 %8, label %.lr.ph, label %.critedge.preheader

.critedge.preheader:                              ; preds = %.lr.ph, %1
  %9 = load ptr, ptr %0, align 8, !tbaa !26
  %10 = getelementptr i8, ptr %9, i64 4
  %.val26 = load i32, ptr %10, align 4, !tbaa !22
  %11 = icmp sgt i32 %.val26, 0
  br i1 %11, label %.critedge, label %.critedge2

.lr.ph:                                           ; preds = %1, %.lr.ph
  %indvars.iv = phi i64 [ %indvars.iv.next, %.lr.ph ], [ 0, %1 ]
  %12 = phi ptr [ %16, %.lr.ph ], [ %6, %1 ]
  %13 = getelementptr i8, ptr %12, i64 8
  %.val22 = load ptr, ptr %13, align 8, !tbaa !25
  %14 = getelementptr inbounds nuw ptr, ptr %.val22, i64 %indvars.iv
  %15 = load ptr, ptr %14, align 8, !tbaa !34
  tail call void @Rtm_ObjMarkAutoFwd_rec(ptr noundef %15)
  %indvars.iv.next = add nuw nsw i64 %indvars.iv, 1
  %16 = load ptr, ptr %5, align 8, !tbaa !30
  %17 = getelementptr i8, ptr %16, i64 4
  %.val20 = load i32, ptr %17, align 4, !tbaa !22
  %18 = sext i32 %.val20 to i64
  %19 = icmp slt i64 %indvars.iv.next, %18
  br i1 %19, label %.lr.ph, label %.critedge.preheader, !llvm.loop !55

.critedge:                                        ; preds = %.critedge.preheader, %.critedge
  %indvars.iv32 = phi i64 [ %indvars.iv.next33, %.critedge ], [ 0, %.critedge.preheader ]
  %20 = phi ptr [ %30, %.critedge ], [ %9, %.critedge.preheader ]
  %.028 = phi i32 [ %29, %.critedge ], [ 0, %.critedge.preheader ]
  %21 = getelementptr i8, ptr %20, i64 8
  %.val21 = load ptr, ptr %21, align 8, !tbaa !25
  %22 = getelementptr inbounds nuw ptr, ptr %.val21, i64 %indvars.iv32
  %23 = load ptr, ptr %22, align 8, !tbaa !34
  %24 = getelementptr inbounds nuw i8, ptr %23, i64 8
  %25 = load i32, ptr %24, align 8
  %26 = xor i32 %25, 16
  store i32 %26, ptr %24, align 8
  %27 = lshr i32 %26, 4
  %28 = and i32 %27, 1
  %29 = add nuw nsw i32 %28, %.028
  %indvars.iv.next33 = add nuw nsw i64 %indvars.iv32, 1
  %30 = load ptr, ptr %0, align 8, !tbaa !26
  %31 = getelementptr i8, ptr %30, i64 4
  %.val = load i32, ptr %31, align 4, !tbaa !22
  %32 = sext i32 %.val to i64
  %33 = icmp slt i64 %indvars.iv.next33, %32
  br i1 %33, label %.critedge, label %.critedge2, !llvm.loop !56

.critedge2:                                       ; preds = %.critedge, %.critedge.preheader
  %.0.lcssa = phi i32 [ 0, %.critedge.preheader ], [ %29, %.critedge ]
  ret i32 %.0.lcssa
}